target datalayout = "e-m:e-p270:32:32-p271:32:32-p272:64:64-i64:64-i128:128-f80:128-n8:16:32:64-S128"
target triple = "x86_64-pc-linux-gnu"

%struct.tng_atom = type { ptr, i64, ptr, ptr }
%struct.tng_trajectory = type { ptr, ptr, i64, ptr, ptr, ptr, ptr, ptr, ptr, i8, i8, ptr, ptr, ptr, ptr, ptr, ptr, ptr, ptr, ptr, i64, i64, i8, i64, i64, i64, double, i64, ptr, ptr, i64, i64, i64, i64, i64, %struct.tng_trajectory_frame_set, i64, i64, i64, i32, ptr, i32, ptr, ptr, ptr, double }
%struct.tng_trajectory_frame_set = type { i64, ptr, i64, i64, i64, i64, ptr, i64, i64, i64, i64, i64, i64, i64, double, i32, ptr, i32, ptr }

@stderr = external global ptr, align 8
@.str.1 = private unnamed_addr constant [130 x i8] c"generated/home/dtcxzyw/WorkSpace/Projects/compilers/llvm-opt-benchmark/bench/gromacs/gromacs/src/external/tng_io/src/lib/tng_io.c\00", align 1
@.str.30 = private unnamed_addr constant [40 x i8] c"TNG library: Cannot read block. %s: %d\0A\00", align 1
@.str.31 = private unnamed_addr constant [45 x i8] c"TNG library: Cannot swap byte order. %s: %d\0A\00", align 1

; Function Attrs: inlinehint nounwind uwtable
define internal i32 @tng_file_input_numerical(ptr noundef %0, ptr noundef %1, i64 noundef %2, i8 noundef signext %3, ptr noundef %4, i32 noundef %5) #4 {
  %7 = alloca i32, align 4
  %8 = alloca ptr, align 8
  %9 = alloca ptr, align 8
  %10 = alloca i64, align 8
  %11 = alloca i8, align 1
  %12 = alloca ptr, align 8
  %13 = alloca i32, align 4
  store ptr %0, ptr %8, align 8, !tbaa !3
  store ptr %1, ptr %9, align 8, !tbaa !225
  store i64 %2, ptr %10, align 8, !tbaa !26
  store i8 %3, ptr %11, align 1, !tbaa !23
  store ptr %4, ptr %12, align 8, !tbaa !242
  store i32 %5, ptr %13, align 4, !tbaa !20
  %14 = load ptr, ptr %9, align 8, !tbaa !225
  %15 = load i64, ptr %10, align 8, !tbaa !26
  %16 = load ptr, ptr %8, align 8, !tbaa !3
  %17 = getelementptr inbounds nuw %struct.tng_trajectory, ptr %16, i32 0, i32 1
  %18 = load ptr, ptr %17, align 8, !tbaa !136
  %19 = call i64 @fread(ptr noundef %14, i64 noundef %15, i64 noundef 1, ptr noundef %18)
  %20 = icmp eq i64 %19, 0
  br i1 %20, label %21, label %25

21:                                               ; preds = %6
  %22 = load ptr, ptr @stderr, align 8, !tbaa !24
  %23 = load i32, ptr %13, align 4, !tbaa !20
  %24 = call i32 (ptr, ptr, ...) @fprintf(ptr noundef %22, ptr noundef @.str.30, ptr noundef @.str.1, i32 noundef %23) #11
  store i32 2, ptr %7, align 4
  br label %74

25:                                               ; preds = %6
  %26 = load i8, ptr %11, align 1, !tbaa !23
  %27 = sext i8 %26 to i32
  %28 = icmp eq i32 %27, 1
  br i1 %28, label %29, label %34

29:                                               ; preds = %25
  %30 = load ptr, ptr %12, align 8, !tbaa !242
  %31 = load ptr, ptr %9, align 8, !tbaa !225
  %32 = load i64, ptr %10, align 8, !tbaa !26
  %33 = trunc i64 %32 to i32
  call void @md5_append(ptr noundef %30, ptr noundef %31, i32 noundef %33)
  br label %34

34:                                               ; preds = %29, %25
  %35 = load i64, ptr %10, align 8, !tbaa !26
  switch i64 %35, label %72 [
    i64 8, label %36
    i64 4, label %54
  ]

36:                                               ; preds = %34
  %37 = load ptr, ptr %8, align 8, !tbaa !3
  %38 = getelementptr inbounds nuw %struct.tng_trajectory, ptr %37, i32 0, i32 6
  %39 = load ptr, ptr %38, align 8, !tbaa !187
  %40 = icmp ne ptr %39, null
  br i1 %40, label %41, label %53

41:                                               ; preds = %36
  %42 = load ptr, ptr %8, align 8, !tbaa !3
  %43 = getelementptr inbounds nuw %struct.tng_trajectory, ptr %42, i32 0, i32 6
  %44 = load ptr, ptr %43, align 8, !tbaa !187
  %45 = load ptr, ptr %8, align 8, !tbaa !3
  %46 = load ptr, ptr %9, align 8, !tbaa !225
  %47 = call i32 %44(ptr noundef %45, ptr noundef %46)
  %48 = icmp ne i32 %47, 0
  br i1 %48, label %49, label %53

49:                                               ; preds = %41
  %50 = load ptr, ptr @stderr, align 8, !tbaa !24
  %51 = load i32, ptr %13, align 4, !tbaa !20
  %52 = call i32 (ptr, ptr, ...) @fprintf(ptr noundef %50, ptr noundef @.str.31, ptr noundef @.str.1, i32 noundef %51) #11
  br label %53

53:                                               ; preds = %49, %41, %36
  br label %73

54:                                               ; preds = %34
  %55 = load ptr, ptr %8, align 8, !tbaa !3
  %56 = getelementptr inbounds nuw %struct.tng_trajectory, ptr %55, i32 0, i32 5
  %57 = load ptr, ptr %56, align 8, !tbaa !186
  %58 = icmp ne ptr %57, null
  br i1 %58, label %59, label %71

59:                                               ; preds = %54
  %60 = load ptr, ptr %8, align 8, !tbaa !3
  %61 = getelementptr inbounds nuw %struct.tng_trajectory, ptr %60, i32 0, i32 5
  %62 = load ptr, ptr %61, align 8, !tbaa !186
  %63 = load ptr, ptr %8, align 8, !tbaa !3
  %64 = load ptr, ptr %9, align 8, !tbaa !225
  %65 = call i32 %62(ptr noundef %63, ptr noundef %64)
  %66 = icmp ne i32 %65, 0
  br i1 %66, label %67, label %71

67:                                               ; preds = %59
  %68 = load ptr, ptr @stderr, align 8, !tbaa !24
  %69 = load i32, ptr %13, align 4, !tbaa !20
  %70 = call i32 (ptr, ptr, ...) @fprintf(ptr noundef %68, ptr noundef @.str.31, ptr noundef @.str.1, i32 noundef %69) #11
  br label %71

71:                                               ; preds = %67, %59, %54
  br label %73

72:                                               ; preds = %34
  br label %73

73:                                               ; preds = %72, %71, %53
  store i32 0, ptr %7, align 4
  br label %74

74:                                               ; preds = %73, %21
  %75 = load i32, ptr %7, align 4
  ret i32 %75
}

; Function Attrs: nounwind uwtable
define internal i32 @tng_atom_data_read(ptr noundef %0, ptr noundef %1, i8 noundef signext %2, ptr noundef %3) #0 {
  %5 = alloca i32, align 4
  %6 = alloca ptr, align 8
  %7 = alloca ptr, align 8
  %8 = alloca i8, align 1
  %9 = alloca ptr, align 8
  store ptr %0, ptr %6, align 8, !tbaa !3
  store ptr %1, ptr %7, align 8, !tbaa !8
  store i8 %2, ptr %8, align 1, !tbaa !23
  store ptr %3, ptr %9, align 8, !tbaa !242
  %10 = load ptr, ptr %6, align 8, !tbaa !3
  %11 = load ptr, ptr %7, align 8, !tbaa !8
  %12 = getelementptr inbounds nuw %struct.tng_atom, ptr %11, i32 0, i32 1
  %13 = load i8, ptr %8, align 1, !tbaa !23
  %14 = load ptr, ptr %9, align 8, !tbaa !242
  %15 = call i32 @tng_file_input_numerical(ptr noundef %10, ptr noundef %12, i64 noundef 8, i8 noundef signext %13, ptr noundef %14, i32 noundef 2590)
  %16 = icmp eq i32 %15, 2
  br i1 %16, label %17, label %18

17:                                               ; preds = %4
  store i32 2, ptr %5, align 4
  br label %31

18:                                               ; preds = %4
  %19 = load ptr, ptr %6, align 8, !tbaa !3
  %20 = load ptr, ptr %7, align 8, !tbaa !8
  %21 = getelementptr inbounds nuw %struct.tng_atom, ptr %20, i32 0, i32 3
  %22 = load i8, ptr %8, align 1, !tbaa !23
  %23 = load ptr, ptr %9, align 8, !tbaa !242
  %24 = call i32 @tng_freadstr(ptr noundef %19, ptr noundef %21, i8 noundef signext %22, ptr noundef %23, i32 noundef 2596)
  %25 = load ptr, ptr %6, align 8, !tbaa !3
  %26 = load ptr, ptr %7, align 8, !tbaa !8
  %27 = getelementptr inbounds nuw %struct.tng_atom, ptr %26, i32 0, i32 2
  %28 = load i8, ptr %8, align 1, !tbaa !23
  %29 = load ptr, ptr %9, align 8, !tbaa !242
  %30 = call i32 @tng_freadstr(ptr noundef %25, ptr noundef %27, i8 noundef signext %28, ptr noundef %29, i32 noundef 2598)
  store i32 0, ptr %5, align 4
  br label %31

31:                                               ; preds = %18, %17
  %32 = load i32, ptr %5, align 4
  ret i32 %32
}